; Function Attrs: mustprogress uwtable
define hidden void @_ZN19maximize_ac_sharing10push_scopeEv(ptr noundef nonnull align 8 dereferenceable(112) %this) local_unnamed_addr #3 align 2 {
entry:
  %m_init.i = getelementptr inbounds i8, ptr %this, i64 16
  %0 = load i8, ptr %m_init.i, align 8
  %1 = and i8 %0, 1
  %tobool.not.i = icmp eq i8 %1, 0
  br i1 %tobool.not.i, label %if.then.i, label %_ZN19maximize_ac_sharing4initEv.exit

if.then.i:                                        ; preds = %entry
  %vtable.i = load ptr, ptr %this, align 8
  %2 = load ptr, ptr %vtable.i, align 8
  tail call void %2(ptr noundef nonnull align 8 dereferenceable(112) %this)
  store i8 1, ptr %m_init.i, align 8
  br label %_ZN19maximize_ac_sharing4initEv.exit

_ZN19maximize_ac_sharing4initEv.exit:             ; preds = %entry, %if.then.i
  %m_scopes = getelementptr inbounds i8, ptr %this, i64 96
  %m_entries = getelementptr inbounds i8, ptr %this, i64 88
  %3 = load ptr, ptr %m_entries, align 8
  %cmp.i = icmp eq ptr %3, null
  br i1 %cmp.i, label %_ZNK6vectorIPN19maximize_ac_sharing5entryELb0EjE4sizeEv.exit, label %if.end.i

if.end.i:                                         ; preds = %_ZN19maximize_ac_sharing4initEv.exit
  %arrayidx.i = getelementptr inbounds i8, ptr %3, i64 -4
  %4 = load i32, ptr %arrayidx.i, align 4
  br label %_ZNK6vectorIPN19maximize_ac_sharing5entryELb0EjE4sizeEv.exit

_ZNK6vectorIPN19maximize_ac_sharing5entryELb0EjE4sizeEv.exit: ; preds = %_ZN19maximize_ac_sharing4initEv.exit, %if.end.i
  %retval.0.i = phi i32 [ %4, %if.end.i ], [ 0, %_ZN19maximize_ac_sharing4initEv.exit ]
  %5 = load ptr, ptr %m_scopes, align 8
  %cmp.i1 = icmp eq ptr %5, null
  br i1 %cmp.i1, label %if.then.i4, label %lor.lhs.false.i

lor.lhs.false.i:                                  ; preds = %_ZNK6vectorIPN19maximize_ac_sharing5entryELb0EjE4sizeEv.exit
  %arrayidx.i2 = getelementptr inbounds i8, ptr %5, i64 -4
  %6 = load i32, ptr %arrayidx.i2, align 4
  %arrayidx4.i = getelementptr inbounds i8, ptr %5, i64 -8
  %7 = load i32, ptr %arrayidx4.i, align 4
  %cmp5.i = icmp eq i32 %6, %7
  br i1 %cmp5.i, label %if.then.i4, label %_ZN6vectorIjLb0EjE9push_backEOj.exit

if.then.i4:                                       ; preds = %lor.lhs.false.i, %_ZNK6vectorIPN19maximize_ac_sharing5entryELb0EjE4sizeEv.exit
  tail call void @_ZN6vectorIjLb0EjE13expand_vectorEv(ptr noundef nonnull align 8 dereferenceable(8) %m_scopes)
  %.pre.i = load ptr, ptr %m_scopes, align 8
  %arrayidx8.phi.trans.insert.i = getelementptr inbounds i8, ptr %.pre.i, i64 -4
  %.pre1.i = load i32, ptr %arrayidx8.phi.trans.insert.i, align 4
  br label %_ZN6vectorIjLb0EjE9push_backEOj.exit

_ZN6vectorIjLb0EjE9push_backEOj.exit:             ; preds = %lor.lhs.false.i, %if.then.i4
  %8 = phi i32 [ %.pre1.i, %if.then.i4 ], [ %6, %lor.lhs.false.i ]
  %9 = phi ptr [ %.pre.i, %if.then.i4 ], [ %5, %lor.lhs.false.i ]
  %idx.ext.i = zext i32 %8 to i64
  %add.ptr.i = getelementptr inbounds i32, ptr %9, i64 %idx.ext.i
  store i32 %retval.0.i, ptr %add.ptr.i, align 4
  %10 = load ptr, ptr %m_scopes, align 8
  %arrayidx10.i = getelementptr inbounds i8, ptr %10, i64 -4
  %11 = load i32, ptr %arrayidx10.i, align 4
  %inc.i = add i32 %11, 1
  store i32 %inc.i, ptr %arrayidx10.i, align 4
  %m_region = getelementptr inbounds i8, ptr %this, i64 24
  tail call void @_ZN6region10push_scopeEv(ptr noundef nonnull align 8 dereferenceable(40) %m_region)
  ret void
}